; Function Attrs: mustprogress uwtable
define noalias nonnull ptr @lean_io_get_tid(ptr noundef readnone captures(none) %0) local_unnamed_addr #0 {
  %2 = tail call i64 (i64, ...) @syscall(i64 noundef 186) #24
  tail call void @lean_inc_heartbeat()
  %3 = tail call noalias ptr @mi_malloc_small(i64 noundef 16) #24
  %4 = icmp eq ptr %3, null
  br i1 %4, label %5, label %_ZN4lean10box_uint64Ey.exit

5:                                                ; preds = %1
  tail call void @lean_internal_panic_out_of_memory() #25
  unreachable

_ZN4lean10box_uint64Ey.exit:                      ; preds = %1
  %sext = shl i64 %2, 32
  %6 = ashr exact i64 %sext, 32
  %7 = getelementptr inbounds nuw i8, ptr %3, i64 4
  store i32 1, ptr %3, align 4, !tbaa !7
  store i32 16, ptr %7, align 4
  %8 = getelementptr inbounds nuw i8, ptr %3, i64 8
  store i64 %6, ptr %8, align 8, !tbaa !11
  tail call void @lean_inc_heartbeat()
  %9 = tail call noalias ptr @mi_malloc_small(i64 noundef 24) #24
  %10 = icmp eq ptr %9, null
  br i1 %10, label %11, label %_ZL20lean_io_result_mk_okP11lean_object.exit

11:                                               ; preds = %_ZN4lean10box_uint64Ey.exit
  tail call void @lean_internal_panic_out_of_memory() #25
  unreachable

_ZL20lean_io_result_mk_okP11lean_object.exit:     ; preds = %_ZN4lean10box_uint64Ey.exit
  %12 = getelementptr inbounds nuw i8, ptr %9, i64 4
  store i32 1, ptr %9, align 4, !tbaa !7
  store i32 131096, ptr %12, align 4
  %13 = getelementptr inbounds nuw i8, ptr %9, i64 8
  store ptr %3, ptr %13, align 8, !tbaa !9
  %14 = getelementptr inbounds nuw i8, ptr %9, i64 16
  store ptr inttoptr (i64 1 to ptr), ptr %14, align 8, !tbaa !9
  ret ptr %9
}